///////////////////////////////////////////////////////////////////////////////
//                                                                            /
//                                                      07/May/2014  16:39:06 /
// IAR ANSI C/C++ Compiler V6.30.6.23336/W32 EVALUATION for ARM               /
// Copyright 1999-2012 IAR Systems AB.                                        /
//                                                                            /
//    Cpu mode     =  thumb                                                   /
//    Endian       =  little                                                  /
//    Source file  =  C:\Users\me\Desktop\OLED¿Í»§×ÊÁÏ\³ÌÐòÀý³Ì\KinetisK60_De /
//                    mo_OLED\src\common\uif.c                                /
//    Command line =  C:\Users\me\Desktop\OLED¿Í»§×ÊÁÏ\³ÌÐòÀý³Ì\KinetisK60_De /
//                    mo_OLED\src\common\uif.c -D IAR -D TWR_K60N512 -lCN     /
//                    C:\Users\me\Desktop\OLED¿Í»§×ÊÁÏ\³ÌÐòÀý³Ì\KinetisK60_De /
//                    mo_OLED\build\iar\hello_world\RAM_128KB\List\ -lB       /
//                    C:\Users\me\Desktop\OLED¿Í»§×ÊÁÏ\³ÌÐòÀý³Ì\KinetisK60_De /
//                    mo_OLED\build\iar\hello_world\RAM_128KB\List\ -o        /
//                    C:\Users\me\Desktop\OLED¿Í»§×ÊÁÏ\³ÌÐòÀý³Ì\KinetisK60_De /
//                    mo_OLED\build\iar\hello_world\RAM_128KB\Obj\ --no_cse   /
//                    --no_unroll --no_inline --no_code_motion --no_tbaa      /
//                    --no_clustering --no_scheduling --debug                 /
//                    --endian=little --cpu=Cortex-M4 -e --fpu=None           /
//                    --dlib_config "C:\Program Files (x86)\IAR               /
//                    Systems\Embedded Workbench 6.0                          /
//                    Evaluation\arm\INC\c\DLib_Config_Normal.h" -I           /
//                    C:\Users\me\Desktop\OLED¿Í»§×ÊÁÏ\³ÌÐòÀý³Ì\KinetisK60_De /
//                    mo_OLED\build\iar\hello_world\..\..\..\src\projects\hel /
//                    lo_world\ -I C:\Users\me\Desktop\OLED¿Í»§×ÊÁÏ\³ÌÐòÀý³Ì\ /
//                    KinetisK60_Demo_OLED\build\iar\hello_world\..\..\..\src /
//                    \common\ -I C:\Users\me\Desktop\OLED¿Í»§×ÊÁÏ\³ÌÐòÀý³Ì\K /
//                    inetisK60_Demo_OLED\build\iar\hello_world\..\..\..\src\ /
//                    cpu\ -I C:\Users\me\Desktop\OLED¿Í»§×ÊÁÏ\³ÌÐòÀý³Ì\Kinet /
//                    isK60_Demo_OLED\build\iar\hello_world\..\..\..\src\cpu\ /
//                    headers\ -I C:\Users\me\Desktop\OLED¿Í»§×ÊÁÏ\³ÌÐòÀý³Ì\K /
//                    inetisK60_Demo_OLED\build\iar\hello_world\..\..\..\src\ /
//                    drivers\adc16\ -I C:\Users\me\Desktop\OLED¿Í»§×ÊÁÏ\³ÌÐò /
//                    Àý³Ì\KinetisK60_Demo_OLED\build\iar\hello_world\..\..\. /
//                    .\src\drivers\enet\ -I C:\Users\me\Desktop\OLED¿Í»§×ÊÁÏ /
//                    \³ÌÐòÀý³Ì\KinetisK60_Demo_OLED\build\iar\hello_world\.. /
//                    \..\..\src\drivers\pmc\ -I                              /
//                    C:\Users\me\Desktop\OLED¿Í»§×ÊÁÏ\³ÌÐòÀý³Ì\KinetisK60_De /
//                    mo_OLED\build\iar\hello_world\..\..\..\src\drivers\rtc\ /
//                     -I C:\Users\me\Desktop\OLED¿Í»§×ÊÁÏ\³ÌÐòÀý³Ì\KinetisK6 /
//                    0_Demo_OLED\build\iar\hello_world\..\..\..\src\drivers\ /
//                    lptmr\ -I C:\Users\me\Desktop\OLED¿Í»§×ÊÁÏ\³ÌÐòÀý³Ì\Kin /
//                    etisK60_Demo_OLED\build\iar\hello_world\..\..\..\src\dr /
//                    ivers\uart\ -I C:\Users\me\Desktop\OLED¿Í»§×ÊÁÏ\³ÌÐòÀý³ /
//                    Ì\KinetisK60_Demo_OLED\build\iar\hello_world\..\..\..\s /
//                    rc\drivers\mcg\ -I C:\Users\me\Desktop\OLED¿Í»§×ÊÁÏ\³ÌÐ /
//                    òÀý³Ì\KinetisK60_Demo_OLED\build\iar\hello_world\..\..\ /
//                    ..\src\drivers\wdog\ -I C:\Users\me\Desktop\OLED¿Í»§×ÊÁ /
//                    Ï\³ÌÐòÀý³Ì\KinetisK60_Demo_OLED\build\iar\hello_world\. /
//                    .\..\..\src\platforms\ -I C:\Users\me\Desktop\OLED¿Í»§× /
//                    ÊÁÏ\³ÌÐòÀý³Ì\KinetisK60_Demo_OLED\build\iar\hello_world /
//                    \..\..\..\src\drivers\ftm\ -I                           /
//                    C:\Users\me\Desktop\OLED¿Í»§×ÊÁÏ\³ÌÐòÀý³Ì\KinetisK60_De /
//                    mo_OLED\build\iar\hello_world\..\..\..\src\drivers\SPI\ /
//                     -I C:\Users\me\Desktop\OLED¿Í»§×ÊÁÏ\³ÌÐòÀý³Ì\KinetisK6 /
//                    0_Demo_OLED\build\iar\hello_world\..\..\..\src\drivers\ /
//                    OLED\ -I C:\Users\me\Desktop\OLED¿Í»§×ÊÁÏ\³ÌÐòÀý³Ì\Kine /
//                    tisK60_Demo_OLED\build\iar\hello_world\..\ -On          /
//                    --use_c++_inline                                        /
//    List file    =  C:\Users\me\Desktop\OLED¿Í»§×ÊÁÏ\³ÌÐòÀý³Ì\KinetisK60_De /
//                    mo_OLED\build\iar\hello_world\RAM_128KB\List\uif.s      /
//                                                                            /
//                                                                            /
///////////////////////////////////////////////////////////////////////////////

        NAME uif

        #define SHT_PROGBITS 0x1

        EXTERN UIF_CMDTAB
        EXTERN UIF_NUM_CMD
        EXTERN UIF_NUM_SETCMD
        EXTERN UIF_SETCMDTAB
        EXTERN in_char
        EXTERN out_char
        EXTERN printf
        EXTERN strcasecmp
        EXTERN strcpy
        EXTERN strtoul

        PUBLIC HELPMSG
        PUBLIC INVALUE
        PUBLIC INVARG
        PUBLIC get_line
        PUBLIC get_value
        PUBLIC make_argv
        PUBLIC run_cmd
        PUBLIC uif_cmd_help
        PUBLIC uif_cmd_set
        PUBLIC uif_cmd_show


        SECTION `.rodata`:CONST:REORDER:NOROOT(1)
        DATA
        DC8 "\012"

        SECTION `.rodata`:CONST:REORDER:NOROOT(2)
`?<Constant "Valid \\'set\\' options:\\n">`:
        DATA
        DC8 "Valid 'set' options:\012"
        DC8 0, 0

        SECTION `.rodata`:CONST:REORDER:NOROOT(2)
        DATA
        DC8 "%s\012"

        SECTION `.rodata`:CONST:REORDER:NOROOT(2)
`?<Constant "Error: Invalid argume...">`:
        DATA
        DC8 "Error: Invalid argument list\012"
        DC8 0, 0

        SECTION `.rodata`:CONST:REORDER:NOROOT(2)
        DATA
        DC8 "\012\012"
        DC8 0
// C:\Users\me\Desktop\OLED¿Í»§×ÊÁÏ\³ÌÐòÀý³Ì\KinetisK60_Demo_OLED\src\common\uif.c
//    1 /*
//    2  * File:    uif.c
//    3  * Purpose: Provide an interactive user interface
//    4  *              
//    5  * Notes:   The commands, set/show parameters, and prompt are configured 
//    6  *          at the project level
//    7  */
//    8 
//    9 #include "common.h"
//   10 #include "uif.h"
//   11 
//   12 /********************************************************************/
//   13 /*
//   14  * Global messages -- constant strings
//   15  */

        SECTION `.rodata`:CONST:REORDER:NOROOT(2)
//   16 const char HELPMSG[] =
HELPMSG:
        DATA
        DC8 "Enter 'help' for help.\012"
//   17     "Enter 'help' for help.\n";
//   18 

        SECTION `.rodata`:CONST:REORDER:NOROOT(2)
//   19 const char INVARG[] =
INVARG:
        DATA
        DC8 "Error: Invalid argument: %s\012"
        DC8 0, 0, 0
//   20     "Error: Invalid argument: %s\n";
//   21 

        SECTION `.rodata`:CONST:REORDER:NOROOT(2)
//   22 const char INVALUE[] = 
INVALUE:
        DATA
        DC8 "Error: Invalid value: %s\012"
        DC8 0, 0
//   23     "Error: Invalid value: %s\n";
//   24 
//   25 /*
//   26  * Strings used by this file only
//   27  */

        SECTION `.rodata`:CONST:REORDER:NOROOT(2)
//   28 static const char INVCMD[] =
INVCMD:
        DATA
        DC8 "Error: No such command: %s\012"
//   29     "Error: No such command: %s\n";
//   30 

        SECTION `.rodata`:CONST:REORDER:NOROOT(2)
//   31 static const char HELPFORMAT[] = 
HELPFORMAT:
        DATA
        DC8 "%8s  %-25s %s %s\012"
        DC8 0, 0
//   32     "%8s  %-25s %s %s\n";
//   33 

        SECTION `.rodata`:CONST:REORDER:NOROOT(2)
//   34 static const char SYNTAX[] = 
SYNTAX:
        DATA
        DC8 "Error: Invalid syntax for: %s\012"
        DC8 0
//   35     "Error: Invalid syntax for: %s\n";
//   36 

        SECTION `.rodata`:CONST:REORDER:NOROOT(2)
//   37 static const char INVOPT[] = 
INVOPT:
        DATA
        DC8 "Error:  Invalid set/show option: %s\012"
        DC8 0, 0, 0
//   38     "Error:  Invalid set/show option: %s\n";
//   39 

        SECTION `.rodata`:CONST:REORDER:NOROOT(2)
//   40 static const char OPTFMT[] = 
OPTFMT:
        DATA
        DC8 "%12s: "
        DC8 0
//   41     "%12s: ";
//   42 

        SECTION `.bss`:DATA:REORDER:NOROOT(2)
//   43 static char cmdline1 [UIF_MAX_LINE];
cmdline1:
        DS8 80

        SECTION `.bss`:DATA:REORDER:NOROOT(2)
//   44 static char cmdline2 [UIF_MAX_LINE];
cmdline2:
        DS8 80
//   45 
//   46 /********************************************************************/

        SECTION `.text`:CODE:NOROOT(1)
        THUMB
//   47 char *
//   48 get_line (char *line)
//   49 {
get_line:
        PUSH     {R4-R6,LR}
        MOVS     R4,R0
//   50     int pos;
//   51     int ch;
//   52 
//   53     pos = 0;
        MOVS     R0,#+0
        MOVS     R5,R0
//   54     ch = (int)in_char();
        BL       in_char
        MOVS     R6,R0
//   55     while ( (ch != 0x0D /* CR */) &&
//   56             (ch != 0x0A /* LF/NL */) &&
//   57             (pos < UIF_MAX_LINE))
??get_line_0:
        CMP      R6,#+13
        BEQ.N    ??get_line_1
        CMP      R6,#+10
        BEQ.N    ??get_line_1
        CMP      R5,#+80
        BGE.N    ??get_line_1
//   58     {
//   59         switch (ch)
        MOVS     R0,R6
        CMP      R0,#+8
        BEQ.N    ??get_line_2
        CMP      R0,#+127
        BNE.N    ??get_line_3
//   60         {
//   61             case 0x08:      /* Backspace */
//   62             case 0x7F:      /* Delete */
//   63                 if (pos > 0)
??get_line_2:
        CMP      R5,#+1
        BLT.N    ??get_line_4
//   64                 {
//   65                     pos -= 1;
        SUBS     R5,R5,#+1
//   66                     out_char(0x08);    /* backspace */
        MOVS     R0,#+8
        BL       out_char
//   67                     out_char(' ');
        MOVS     R0,#+32
        BL       out_char
//   68                     out_char(0x08);    /* backspace */
        MOVS     R0,#+8
        BL       out_char
//   69                 }
//   70                 break;
??get_line_4:
        B.N      ??get_line_5
//   71             default:
//   72                 if ((pos+1) < UIF_MAX_LINE)
??get_line_3:
        ADDS     R0,R5,#+1
        CMP      R0,#+80
        BGE.N    ??get_line_6
//   73                 {
//   74                     if ((ch > 0x1f) && (ch < 0x80))
        CMP      R6,#+32
        BLT.N    ??get_line_6
        CMP      R6,#+128
        BGE.N    ??get_line_6
//   75                     {
//   76                         line[pos++] = (char)ch;
        STRB     R6,[R5, R4]
        ADDS     R5,R5,#+1
//   77                         out_char((char)ch);
        MOVS     R0,R6
        UXTB     R0,R0            ;; ZeroExt  R0,R0,#+24,#+24
        BL       out_char
//   78                     }
//   79                 }
//   80                 break;
//   81         }
//   82         ch = (int)in_char();
??get_line_6:
??get_line_5:
        BL       in_char
        MOVS     R6,R0
        B.N      ??get_line_0
//   83     }
//   84     line[pos] = '\0';
??get_line_1:
        MOVS     R0,#+0
        STRB     R0,[R5, R4]
//   85     out_char(0x0D);    /* CR */
        MOVS     R0,#+13
        BL       out_char
//   86     out_char(0x0A);    /* LF */
        MOVS     R0,#+10
        BL       out_char
//   87 
//   88     return line;
        MOVS     R0,R4
        POP      {R4-R6,PC}       ;; return
//   89 }
//   90 
//   91 /********************************************************************/

        SECTION `.text`:CODE:NOROOT(1)
        THUMB
//   92 int
//   93 make_argv (char *cmdline, char *argv[])
//   94 {
make_argv:
        PUSH     {R4,R5}
        MOVS     R2,R0
//   95     int argc, i, in_text;
//   96 
//   97     /* 
//   98      * Break cmdline into strings and argv
//   99      * It is permissible for argv to be NULL, in which case
//  100      * the purpose of this routine becomes to count args
//  101      */
//  102     argc = 0;
        MOVS     R5,#+0
        MOVS     R0,R5
//  103     i = 0;
        MOVS     R5,#+0
        MOVS     R3,R5
//  104     in_text = FALSE;
        MOVS     R5,#+0
        MOVS     R4,R5
//  105     while (cmdline[i] != '\0')  /* getline() must place 0x00 on end */
??make_argv_0:
        LDRB     R5,[R3, R2]
        CMP      R5,#+0
        BEQ.N    ??make_argv_1
//  106     {
//  107         if (((cmdline[i] == ' ')   ||
//  108              (cmdline[i] == '\t')) )
        LDRB     R5,[R3, R2]
        CMP      R5,#+32
        BEQ.N    ??make_argv_2
        LDRB     R5,[R3, R2]
        CMP      R5,#+9
        BNE.N    ??make_argv_3
//  109         {
//  110             if (in_text)
??make_argv_2:
        CMP      R4,#+0
        BEQ.N    ??make_argv_4
//  111             {
//  112                 /* end of command line argument */
//  113                 cmdline[i] = '\0';
        MOVS     R5,#+0
        STRB     R5,[R3, R2]
//  114                 in_text = FALSE;
        MOVS     R5,#+0
        MOVS     R4,R5
        B.N      ??make_argv_4
//  115             }
//  116             else
//  117             {
//  118                 /* still looking for next argument */
//  119                 
//  120             }
//  121         }
//  122         else
//  123         {
//  124             /* got non-whitespace character */
//  125             if (in_text)
??make_argv_3:
        CMP      R4,#+0
        BNE.N    ??make_argv_4
//  126             {
//  127             }
//  128             else
//  129             {
//  130                 /* start of an argument */
//  131                 in_text = TRUE;
        MOVS     R5,#+1
        MOVS     R4,R5
//  132                 if (argc < UIF_MAX_ARGS)
        CMP      R0,#+10
        BGE.N    ??make_argv_5
//  133                 {
//  134                     if (argv != NULL)
        CMP      R1,#+0
        BEQ.N    ??make_argv_6
//  135                         argv[argc] = &cmdline[i];
        ADDS     R5,R3,R2
        STR      R5,[R1, R0, LSL #+2]
//  136                     argc++;
??make_argv_6:
        ADDS     R0,R0,#+1
        B.N      ??make_argv_4
//  137                 }
//  138                 else
//  139                     /*return argc;*/
//  140                     break;
??make_argv_5:
        B.N      ??make_argv_1
//  141             }
//  142 
//  143         }
//  144         i++;    /* proceed to next character */
??make_argv_4:
        ADDS     R3,R3,#+1
        B.N      ??make_argv_0
//  145     }
//  146     if (argv != NULL)
??make_argv_1:
        CMP      R1,#+0
        BEQ.N    ??make_argv_7
//  147         argv[argc] = NULL;
        MOVS     R5,#+0
        STR      R5,[R1, R0, LSL #+2]
//  148     return argc;
??make_argv_7:
        POP      {R4,R5}
        BX       LR               ;; return
//  149 }
//  150 
//  151 /********************************************************************/

        SECTION `.text`:CODE:NOROOT(1)
        THUMB
//  152 void
//  153 run_cmd (void)
//  154 {
run_cmd:
        PUSH     {R4,R5,LR}
        SUB      SP,SP,#+44
//  155     /*
//  156      * Global array of pointers to emulate C argc,argv interface
//  157      */
//  158     int argc;
//  159     char *argv[UIF_MAX_ARGS + 1];   /* one extra for null terminator */
//  160 
//  161     get_line(cmdline1);
        LDR.N    R0,??DataTable3_3
        BL       get_line
//  162 
//  163     if (!(argc = make_argv(cmdline1,argv)))
        ADD      R1,SP,#+0
        LDR.N    R0,??DataTable3_3
        BL       make_argv
        MOVS     R4,R0
        CMP      R0,#+0
        BNE.N    ??run_cmd_0
//  164     {
//  165         /* no command entered, just a blank line */
//  166         strcpy(cmdline1,cmdline2);
        LDR.N    R1,??DataTable3_4
        LDR.N    R0,??DataTable3_3
        BL       strcpy
//  167         argc = make_argv(cmdline1,argv);
        ADD      R1,SP,#+0
        LDR.N    R0,??DataTable3_3
        BL       make_argv
        MOVS     R4,R0
//  168     }
//  169     cmdline2[0] = '\0';
??run_cmd_0:
        LDR.N    R0,??DataTable3_4
        MOVS     R1,#+0
        STRB     R1,[R0, #+0]
//  170 
//  171     if (argc)
        CMP      R4,#+0
        BEQ.N    ??run_cmd_1
//  172     {
//  173         int i;
//  174         for (i = 0; i < UIF_NUM_CMD; i++)
        MOVS     R0,#+0
        MOVS     R5,R0
??run_cmd_2:
        LDR.N    R0,??DataTable3_5
        LDR      R0,[R0, #+0]
        CMP      R5,R0
        BGE.N    ??run_cmd_3
//  175         {
//  176             if (strcasecmp(UIF_CMDTAB[i].cmd,argv[0]) == 0)
        LDR      R1,[SP, #+0]
        MOVS     R0,#+28
        LDR.N    R2,??DataTable3_6
        MLA      R0,R0,R5,R2
        LDR      R0,[R0, #+0]
        BL       strcasecmp
        CMP      R0,#+0
        BNE.N    ??run_cmd_4
//  177             {
//  178                 if (((argc-1) >= UIF_CMDTAB[i].min_args) &&
//  179                     ((argc-1) <= UIF_CMDTAB[i].max_args))
        SUBS     R0,R4,#+1
        MOVS     R1,#+28
        LDR.N    R2,??DataTable3_6
        MLA      R1,R1,R5,R2
        LDR      R1,[R1, #+4]
        CMP      R0,R1
        BLT.N    ??run_cmd_5
        MOVS     R0,#+28
        LDR.N    R1,??DataTable3_6
        MLA      R0,R0,R5,R1
        LDR      R0,[R0, #+8]
        SUBS     R1,R4,#+1
        CMP      R0,R1
        BLT.N    ??run_cmd_5
//  180                 {
//  181                     if (UIF_CMDTAB[i].flags & UIF_CMD_FLAG_REPEAT)
        MOVS     R0,#+28
        LDR.N    R1,??DataTable3_6
        MLA      R0,R0,R5,R1
        LDRB     R0,[R0, #+12]
        LSLS     R0,R0,#+31
        BPL.N    ??run_cmd_6
//  182                     {
//  183                         strcpy(cmdline2,argv[0]);
        LDR      R1,[SP, #+0]
        LDR.N    R0,??DataTable3_4
        BL       strcpy
//  184                     }
//  185                     UIF_CMDTAB[i].func(argc,argv);
??run_cmd_6:
        ADD      R1,SP,#+0
        MOVS     R0,R4
        MOVS     R2,#+28
        LDR.N    R3,??DataTable3_6
        MLA      R2,R2,R5,R3
        LDR      R2,[R2, #+16]
        BLX      R2
//  186                     return;
        B.N      ??run_cmd_7
//  187                 }
//  188                 else
//  189                 {
//  190                     printf(SYNTAX,argv[0]);
??run_cmd_5:
        LDR      R1,[SP, #+0]
        LDR.N    R0,??DataTable3_7
        BL       printf
//  191                     return;
        B.N      ??run_cmd_7
//  192                 }
//  193             }
//  194         }
??run_cmd_4:
        ADDS     R5,R5,#+1
        B.N      ??run_cmd_2
//  195         printf(INVCMD,argv[0]);
??run_cmd_3:
        LDR      R1,[SP, #+0]
        LDR.N    R0,??DataTable3_8
        BL       printf
//  196         printf(HELPMSG);
        LDR.N    R0,??DataTable3_9
        BL       printf
//  197     }
//  198 }
??run_cmd_1:
??run_cmd_7:
        ADD      SP,SP,#+44
        POP      {R4,R5,PC}       ;; return
//  199 /********************************************************************/

        SECTION `.text`:CODE:NOROOT(1)
        THUMB
//  200 uint32
//  201 get_value (char *s, int *success, int base)
//  202 {
get_value:
        PUSH     {R3-R7,LR}
        MOVS     R4,R0
        MOVS     R5,R1
        MOVS     R6,R2
//  203     uint32 value;
//  204     char *p;
//  205 
//  206     value = strtoul(s,&p,base);
        MOVS     R2,R6
        ADD      R1,SP,#+0
        MOVS     R0,R4
        BL       strtoul
        MOVS     R7,R0
//  207     if ((value == 0) && (p == s))
        CMP      R7,#+0
        BNE.N    ??get_value_0
        LDR      R0,[SP, #+0]
        CMP      R0,R4
        BNE.N    ??get_value_0
//  208     {
//  209         *success = FALSE;
        MOVS     R0,#+0
        STR      R0,[R5, #+0]
//  210         return 0;
        MOVS     R0,#+0
        B.N      ??get_value_1
//  211     }
//  212     else
//  213     {
//  214         *success = TRUE;
??get_value_0:
        MOVS     R0,#+1
        STR      R0,[R5, #+0]
//  215         return value;
        MOVS     R0,R7
??get_value_1:
        POP      {R1,R4-R7,PC}    ;; return
//  216     }
//  217 }
//  218 /********************************************************************/

        SECTION `.text`:CODE:NOROOT(1)
        THUMB
//  219 void
//  220 uif_cmd_help (int argc, char **argv)
//  221 {
uif_cmd_help:
        PUSH     {R4-R6,LR}
        SUB      SP,SP,#+8
        MOVS     R4,R0
        MOVS     R5,R1
//  222     int index;
//  223     
//  224     (void)argc;
//  225     (void)argv;
//  226     
//  227     printf("\n");
        ADR.N    R0,??DataTable3  ;; "\n"
        BL       printf
//  228     for (index = 0; index < UIF_NUM_CMD; index++)
        MOVS     R0,#+0
        MOVS     R6,R0
??uif_cmd_help_0:
        LDR.N    R0,??DataTable3_5
        LDR      R0,[R0, #+0]
        CMP      R6,R0
        BGE.N    ??uif_cmd_help_1
//  229     {
//  230         printf(HELPFORMAT,
//  231             UIF_CMDTAB[index].cmd,
//  232             UIF_CMDTAB[index].description,
//  233             UIF_CMDTAB[index].cmd,
//  234             UIF_CMDTAB[index].syntax);
        MOVS     R0,#+28
        LDR.N    R1,??DataTable3_6
        MLA      R0,R0,R6,R1
        LDR      R0,[R0, #+24]
        STR      R0,[SP, #+0]
        MOVS     R0,#+28
        LDR.N    R1,??DataTable3_6
        MLA      R0,R0,R6,R1
        LDR      R3,[R0, #+0]
        MOVS     R0,#+28
        LDR.N    R1,??DataTable3_6
        MLA      R0,R0,R6,R1
        LDR      R2,[R0, #+20]
        MOVS     R0,#+28
        LDR.N    R1,??DataTable3_6
        MLA      R0,R0,R6,R1
        LDR      R1,[R0, #+0]
        LDR.N    R0,??DataTable3_10
        BL       printf
//  235     }
        ADDS     R6,R6,#+1
        B.N      ??uif_cmd_help_0
//  236     printf("\n");
??uif_cmd_help_1:
        ADR.N    R0,??DataTable3  ;; "\n"
        BL       printf
//  237 }
        POP      {R0,R1,R4-R6,PC}  ;; return
//  238 /********************************************************************/

        SECTION `.text`:CODE:NOROOT(1)
        THUMB
//  239 void
//  240 uif_cmd_set (int argc, char **argv)
//  241 {
uif_cmd_set:
        PUSH     {R4-R6,LR}
        MOVS     R4,R0
        MOVS     R5,R1
//  242     int index;
//  243 
//  244     printf("\n");
        ADR.N    R0,??DataTable3  ;; "\n"
        BL       printf
//  245     if (argc == 1)
        CMP      R4,#+1
        BNE.N    ??uif_cmd_set_0
//  246     {
//  247         printf("Valid 'set' options:\n");
        LDR.N    R0,??DataTable3_11
        BL       printf
//  248         for (index = 0; index < UIF_NUM_SETCMD; ++index)
        MOVS     R0,#+0
        MOVS     R6,R0
??uif_cmd_set_1:
        LDR.N    R0,??DataTable3_12
        LDR      R0,[R0, #+0]
        CMP      R6,R0
        BGE.N    ??uif_cmd_set_2
//  249         {
//  250             printf(OPTFMT,UIF_SETCMDTAB[index].option);
        MOVS     R0,#+20
        LDR.N    R1,??DataTable3_13
        MLA      R0,R0,R6,R1
        LDR      R1,[R0, #+0]
        LDR.N    R0,??DataTable3_14
        BL       printf
//  251             printf("%s\n",UIF_SETCMDTAB[index].syntax);
        MOVS     R0,#+20
        LDR.N    R1,??DataTable3_13
        MLA      R0,R0,R6,R1
        LDR      R1,[R0, #+16]
        ADR.N    R0,??DataTable3_1  ;; "%s\n"
        BL       printf
//  252         }
        ADDS     R6,R6,#+1
        B.N      ??uif_cmd_set_1
//  253         printf("\n");
??uif_cmd_set_2:
        ADR.N    R0,??DataTable3  ;; "\n"
        BL       printf
//  254         return;
        B.N      ??uif_cmd_set_3
//  255     }
//  256 
//  257     if (argc != 3)
??uif_cmd_set_0:
        CMP      R4,#+3
        BEQ.N    ??uif_cmd_set_4
//  258     {
//  259         printf("Error: Invalid argument list\n");
        LDR.N    R0,??DataTable3_15
        BL       printf
//  260         return;
        B.N      ??uif_cmd_set_3
//  261     }
//  262 
//  263     for (index = 0; index < UIF_NUM_SETCMD; index++)
??uif_cmd_set_4:
        MOVS     R0,#+0
        MOVS     R6,R0
??uif_cmd_set_5:
        LDR.N    R0,??DataTable3_12
        LDR      R0,[R0, #+0]
        CMP      R6,R0
        BGE.N    ??uif_cmd_set_6
//  264     {
//  265         if (strcasecmp(UIF_SETCMDTAB[index].option,argv[1]) == 0)
        LDR      R1,[R5, #+4]
        MOVS     R0,#+20
        LDR.N    R2,??DataTable3_13
        MLA      R0,R0,R6,R2
        LDR      R0,[R0, #+0]
        BL       strcasecmp
        CMP      R0,#+0
        BNE.N    ??uif_cmd_set_7
//  266         {
//  267             if (((argc-1-1) >= UIF_SETCMDTAB[index].min_args) &&
//  268                 ((argc-1-1) <= UIF_SETCMDTAB[index].max_args))
        SUBS     R0,R4,#+2
        MOVS     R1,#+20
        LDR.N    R2,??DataTable3_13
        MLA      R1,R1,R6,R2
        LDR      R1,[R1, #+4]
        CMP      R0,R1
        BLT.N    ??uif_cmd_set_8
        MOVS     R0,#+20
        LDR.N    R1,??DataTable3_13
        MLA      R0,R0,R6,R1
        LDR      R0,[R0, #+8]
        SUBS     R1,R4,#+2
        CMP      R0,R1
        BLT.N    ??uif_cmd_set_8
//  269             {
//  270                 UIF_SETCMDTAB[index].func(argc,argv);
        MOVS     R1,R5
        MOVS     R0,R4
        MOVS     R2,#+20
        LDR.N    R3,??DataTable3_13
        MLA      R2,R2,R6,R3
        LDR      R2,[R2, #+12]
        BLX      R2
//  271                 return;
        B.N      ??uif_cmd_set_3
//  272             }
//  273             else
//  274             {
//  275                 printf(INVARG,argv[1]);
??uif_cmd_set_8:
        LDR      R1,[R5, #+4]
        LDR.N    R0,??DataTable3_16
        BL       printf
//  276                 return;
        B.N      ??uif_cmd_set_3
//  277             }
//  278         }
//  279     }
??uif_cmd_set_7:
        ADDS     R6,R6,#+1
        B.N      ??uif_cmd_set_5
//  280     printf(INVOPT,argv[1]);
??uif_cmd_set_6:
        LDR      R1,[R5, #+4]
        LDR.N    R0,??DataTable3_17
        BL       printf
//  281 }
??uif_cmd_set_3:
        POP      {R4-R6,PC}       ;; return
//  282 
//  283 /********************************************************************/

        SECTION `.text`:CODE:NOROOT(1)
        THUMB
//  284 void
//  285 uif_cmd_show (int argc, char **argv)
//  286 {
uif_cmd_show:
        PUSH     {R4-R6,LR}
        MOVS     R4,R0
        MOVS     R5,R1
//  287     int index;
//  288 
//  289     printf("\n");
        ADR.N    R0,??DataTable3  ;; "\n"
        BL       printf
//  290     if (argc == 1)
        CMP      R4,#+1
        BNE.N    ??uif_cmd_show_0
//  291     {
//  292         /*
//  293          * Show all Option settings
//  294          */
//  295         argc = 2;
        MOVS     R0,#+2
        MOVS     R4,R0
//  296         argv[2] = NULL;
        MOVS     R0,#+0
        STR      R0,[R5, #+8]
//  297         for (index = 0; index < UIF_NUM_SETCMD; index++)
        MOVS     R0,#+0
        MOVS     R6,R0
??uif_cmd_show_1:
        LDR.N    R0,??DataTable3_12
        LDR      R0,[R0, #+0]
        CMP      R6,R0
        BGE.N    ??uif_cmd_show_2
//  298         {
//  299             printf(OPTFMT,UIF_SETCMDTAB[index].option);
        MOVS     R0,#+20
        LDR.N    R1,??DataTable3_13
        MLA      R0,R0,R6,R1
        LDR      R1,[R0, #+0]
        LDR.N    R0,??DataTable3_14
        BL       printf
//  300             UIF_SETCMDTAB[index].func(argc,argv);
        MOVS     R1,R5
        MOVS     R0,R4
        MOVS     R2,#+20
        LDR.N    R3,??DataTable3_13
        MLA      R2,R2,R6,R3
        LDR      R2,[R2, #+12]
        BLX      R2
//  301             printf("\n");
        ADR.N    R0,??DataTable3  ;; "\n"
        BL       printf
//  302         }
        ADDS     R6,R6,#+1
        B.N      ??uif_cmd_show_1
//  303         printf("\n");
??uif_cmd_show_2:
        ADR.N    R0,??DataTable3  ;; "\n"
        BL       printf
//  304         return;
        B.N      ??uif_cmd_show_3
//  305     }
//  306 
//  307     for (index = 0; index < UIF_NUM_SETCMD; index++)
??uif_cmd_show_0:
        MOVS     R0,#+0
        MOVS     R6,R0
??uif_cmd_show_4:
        LDR.N    R0,??DataTable3_12
        LDR      R0,[R0, #+0]
        CMP      R6,R0
        BGE.N    ??uif_cmd_show_5
//  308     {
//  309         if (strcasecmp(UIF_SETCMDTAB[index].option,argv[1]) == 0)
        LDR      R1,[R5, #+4]
        MOVS     R0,#+20
        LDR.N    R2,??DataTable3_13
        MLA      R0,R0,R6,R2
        LDR      R0,[R0, #+0]
        BL       strcasecmp
        CMP      R0,#+0
        BNE.N    ??uif_cmd_show_6
//  310         {
//  311             if (((argc-1-1) >= UIF_SETCMDTAB[index].min_args) &&
//  312                 ((argc-1-1) <= UIF_SETCMDTAB[index].max_args))
        SUBS     R0,R4,#+2
        MOVS     R1,#+20
        LDR.N    R2,??DataTable3_13
        MLA      R1,R1,R6,R2
        LDR      R1,[R1, #+4]
        CMP      R0,R1
        BLT.N    ??uif_cmd_show_7
        MOVS     R0,#+20
        LDR.N    R1,??DataTable3_13
        MLA      R0,R0,R6,R1
        LDR      R0,[R0, #+8]
        SUBS     R1,R4,#+2
        CMP      R0,R1
        BLT.N    ??uif_cmd_show_7
//  313             {
//  314                 printf(OPTFMT,UIF_SETCMDTAB[index].option);
        MOVS     R0,#+20
        LDR.N    R1,??DataTable3_13
        MLA      R0,R0,R6,R1
        LDR      R1,[R0, #+0]
        LDR.N    R0,??DataTable3_14
        BL       printf
//  315                 UIF_SETCMDTAB[index].func(argc,argv);
        MOVS     R1,R5
        MOVS     R0,R4
        MOVS     R2,#+20
        LDR.N    R3,??DataTable3_13
        MLA      R2,R2,R6,R3
        LDR      R2,[R2, #+12]
        BLX      R2
//  316                 printf("\n\n");
        ADR.N    R0,??DataTable3_2  ;; 0x0A, 0x0A, 0x00, 0x00
        BL       printf
//  317                 return;
        B.N      ??uif_cmd_show_3
//  318             }
//  319             else
//  320             {
//  321                 printf(INVARG,argv[1]);
??uif_cmd_show_7:
        LDR      R1,[R5, #+4]
        LDR.N    R0,??DataTable3_16
        BL       printf
//  322                 return;
        B.N      ??uif_cmd_show_3
//  323             }
//  324         }
//  325     }
??uif_cmd_show_6:
        ADDS     R6,R6,#+1
        B.N      ??uif_cmd_show_4
//  326     printf(INVOPT,argv[1]);
??uif_cmd_show_5:
        LDR      R1,[R5, #+4]
        LDR.N    R0,??DataTable3_17
        BL       printf
//  327 }
??uif_cmd_show_3:
        POP      {R4-R6,PC}       ;; return

        SECTION `.text`:CODE:NOROOT(2)
        SECTION_TYPE SHT_PROGBITS, 0
        DATA
??DataTable3:
        DC8      "\n",0x0,0x0

        SECTION `.text`:CODE:NOROOT(2)
        SECTION_TYPE SHT_PROGBITS, 0
        DATA
??DataTable3_1:
        DC8      "%s\n"

        SECTION `.text`:CODE:NOROOT(2)
        SECTION_TYPE SHT_PROGBITS, 0
        DATA
??DataTable3_2:
        DC8      0x0A, 0x0A, 0x00, 0x00

        SECTION `.text`:CODE:NOROOT(2)
        SECTION_TYPE SHT_PROGBITS, 0
        DATA
??DataTable3_3:
        DC32     cmdline1

        SECTION `.text`:CODE:NOROOT(2)
        SECTION_TYPE SHT_PROGBITS, 0
        DATA
??DataTable3_4:
        DC32     cmdline2

        SECTION `.text`:CODE:NOROOT(2)
        SECTION_TYPE SHT_PROGBITS, 0
        DATA
??DataTable3_5:
        DC32     UIF_NUM_CMD

        SECTION `.text`:CODE:NOROOT(2)
        SECTION_TYPE SHT_PROGBITS, 0
        DATA
??DataTable3_6:
        DC32     UIF_CMDTAB

        SECTION `.text`:CODE:NOROOT(2)
        SECTION_TYPE SHT_PROGBITS, 0
        DATA
??DataTable3_7:
        DC32     SYNTAX

        SECTION `.text`:CODE:NOROOT(2)
        SECTION_TYPE SHT_PROGBITS, 0
        DATA
??DataTable3_8:
        DC32     INVCMD

        SECTION `.text`:CODE:NOROOT(2)
        SECTION_TYPE SHT_PROGBITS, 0
        DATA
??DataTable3_9:
        DC32     HELPMSG

        SECTION `.text`:CODE:NOROOT(2)
        SECTION_TYPE SHT_PROGBITS, 0
        DATA
??DataTable3_10:
        DC32     HELPFORMAT

        SECTION `.text`:CODE:NOROOT(2)
        SECTION_TYPE SHT_PROGBITS, 0
        DATA
??DataTable3_11:
        DC32     `?<Constant "Valid \\'set\\' options:\\n">`

        SECTION `.text`:CODE:NOROOT(2)
        SECTION_TYPE SHT_PROGBITS, 0
        DATA
??DataTable3_12:
        DC32     UIF_NUM_SETCMD

        SECTION `.text`:CODE:NOROOT(2)
        SECTION_TYPE SHT_PROGBITS, 0
        DATA
??DataTable3_13:
        DC32     UIF_SETCMDTAB

        SECTION `.text`:CODE:NOROOT(2)
        SECTION_TYPE SHT_PROGBITS, 0
        DATA
??DataTable3_14:
        DC32     OPTFMT

        SECTION `.text`:CODE:NOROOT(2)
        SECTION_TYPE SHT_PROGBITS, 0
        DATA
??DataTable3_15:
        DC32     `?<Constant "Error: Invalid argume...">`

        SECTION `.text`:CODE:NOROOT(2)
        SECTION_TYPE SHT_PROGBITS, 0
        DATA
??DataTable3_16:
        DC32     INVARG

        SECTION `.text`:CODE:NOROOT(2)
        SECTION_TYPE SHT_PROGBITS, 0
        DATA
??DataTable3_17:
        DC32     INVOPT

        SECTION `.iar_vfe_header`:DATA:REORDER:NOALLOC:NOROOT(2)
        SECTION_TYPE SHT_PROGBITS, 0
        DATA
        DC32 0

        SECTION __DLIB_PERTHREAD:DATA:REORDER:NOROOT(0)
        SECTION_TYPE SHT_PROGBITS, 0

        SECTION __DLIB_PERTHREAD_init:DATA:REORDER:NOROOT(0)
        SECTION_TYPE SHT_PROGBITS, 0

        END
//  328 
//  329 /********************************************************************/
// 
//   160 bytes in section .bss
//   278 bytes in section .rodata
// 1 012 bytes in section .text
// 
// 1 012 bytes of CODE  memory
//   278 bytes of CONST memory
//   160 bytes of DATA  memory
//
//Errors: none
//Warnings: none
