; generated by ARM C/C++ Compiler with , RVCT4.0 [Build 524] for uVision
; commandline ArmCC [--split_sections --debug -c --asm --interleave -o.\obj\stm32f10x_it.o --depend=.\obj\stm32f10x_it.d --device=DARMSTM --apcs=interwork -O3 -I..\..\library\inc -I..\..\library\src -I..\uvsion -Id:\Keil\ARM\INC\ST\STM32F10x --omf_browse=.\obj\stm32f10x_it.crf stm32f10x_it.c]
                          THUMB

                          AREA ||i.ADC_IRQHandler||, CODE, READONLY, ALIGN=1

                  ADC_IRQHandler PROC
;;;344    *******************************************************************************/
;;;345    void ADC_IRQHandler(void)
000000  4770              BX       lr
;;;346    {
;;;347    }
;;;348    
                          ENDP


                          AREA ||i.BusFaultException||, CODE, READONLY, ALIGN=1

                  BusFaultException PROC
;;;75     *******************************************************************************/
;;;76     void BusFaultException(void)
000000  4770              BX       lr
;;;77     {
;;;78     }
;;;79     
                          ENDP


                          AREA ||i.CAN_RX1_IRQHandler||, CODE, READONLY, ALIGN=1

                  CAN_RX1_IRQHandler PROC
;;;379    *******************************************************************************/
;;;380    void CAN_RX1_IRQHandler(void)
000000  4770              BX       lr
;;;381    {
;;;382    }
;;;383    
                          ENDP


                          AREA ||i.CAN_SCE_IRQHandler||, CODE, READONLY, ALIGN=1

                  CAN_SCE_IRQHandler PROC
;;;390    *******************************************************************************/
;;;391    void CAN_SCE_IRQHandler(void)
000000  4770              BX       lr
;;;392    {
;;;393    }
;;;394    
                          ENDP


                          AREA ||i.DMAChannel1_IRQHandler||, CODE, READONLY, ALIGN=1

                  DMAChannel1_IRQHandler PROC
;;;267    *******************************************************************************/
;;;268    void DMAChannel1_IRQHandler(void)
000000  4770              BX       lr
;;;269    {
;;;270    }
;;;271    
                          ENDP


                          AREA ||i.DMAChannel2_IRQHandler||, CODE, READONLY, ALIGN=1

                  DMAChannel2_IRQHandler PROC
;;;278    *******************************************************************************/
;;;279    void DMAChannel2_IRQHandler(void)
000000  4770              BX       lr
;;;280    {
;;;281    }
;;;282    
                          ENDP


                          AREA ||i.DMAChannel3_IRQHandler||, CODE, READONLY, ALIGN=1

                  DMAChannel3_IRQHandler PROC
;;;289    *******************************************************************************/
;;;290    void DMAChannel3_IRQHandler(void)
000000  4770              BX       lr
;;;291    {
;;;292    }
;;;293    
                          ENDP


                          AREA ||i.DMAChannel4_IRQHandler||, CODE, READONLY, ALIGN=1

                  DMAChannel4_IRQHandler PROC
;;;300    *******************************************************************************/
;;;301    void DMAChannel4_IRQHandler(void)
000000  4770              BX       lr
;;;302    {
;;;303    }
;;;304    
                          ENDP


                          AREA ||i.DMAChannel5_IRQHandler||, CODE, READONLY, ALIGN=1

                  DMAChannel5_IRQHandler PROC
;;;311    *******************************************************************************/
;;;312    void DMAChannel5_IRQHandler(void)
000000  4770              BX       lr
;;;313    {
;;;314    }
;;;315    
                          ENDP


                          AREA ||i.DMAChannel6_IRQHandler||, CODE, READONLY, ALIGN=1

                  DMAChannel6_IRQHandler PROC
;;;322    *******************************************************************************/
;;;323    void DMAChannel6_IRQHandler(void)
000000  4770              BX       lr
;;;324    {
;;;325    }
;;;326    
                          ENDP


                          AREA ||i.DMAChannel7_IRQHandler||, CODE, READONLY, ALIGN=1

                  DMAChannel7_IRQHandler PROC
;;;333    *******************************************************************************/
;;;334    void DMAChannel7_IRQHandler(void)
000000  4770              BX       lr
;;;335    {
;;;336    }
;;;337    
                          ENDP


                          AREA ||i.DebugMonitor||, CODE, READONLY, ALIGN=1

                  DebugMonitor PROC
;;;97     *******************************************************************************/
;;;98     void DebugMonitor(void)
000000  4770              BX       lr
;;;99     {
;;;100    }
;;;101    
                          ENDP


                          AREA ||i.EXTI0_IRQHandler||, CODE, READONLY, ALIGN=1

                  EXTI0_IRQHandler PROC
;;;212    *******************************************************************************/
;;;213    void EXTI0_IRQHandler(void)
000000  4770              BX       lr
;;;214    {
;;;215    }
;;;216    
                          ENDP


                          AREA ||i.EXTI15_10_IRQHandler||, CODE, READONLY, ALIGN=1

                  EXTI15_10_IRQHandler PROC
;;;598    *******************************************************************************/
;;;599    void EXTI15_10_IRQHandler(void)
000000  4770              BX       lr
;;;600    {
;;;601    }
;;;602    
                          ENDP


                          AREA ||i.EXTI1_IRQHandler||, CODE, READONLY, ALIGN=1

                  EXTI1_IRQHandler PROC
;;;223    *******************************************************************************/
;;;224    void EXTI1_IRQHandler(void)
000000  4770              BX       lr
;;;225    {
;;;226    }
;;;227    
                          ENDP


                          AREA ||i.EXTI2_IRQHandler||, CODE, READONLY, ALIGN=1

                  EXTI2_IRQHandler PROC
;;;234    *******************************************************************************/
;;;235    void EXTI2_IRQHandler(void)
000000  4770              BX       lr
;;;236    {
;;;237    }
;;;238    
                          ENDP


                          AREA ||i.EXTI3_IRQHandler||, CODE, READONLY, ALIGN=1

                  EXTI3_IRQHandler PROC
;;;245    *******************************************************************************/
;;;246    void EXTI3_IRQHandler(void)
000000  4770              BX       lr
;;;247    {
;;;248    }
;;;249    
                          ENDP


                          AREA ||i.EXTI4_IRQHandler||, CODE, READONLY, ALIGN=1

                  EXTI4_IRQHandler PROC
;;;256    *******************************************************************************/
;;;257    void EXTI4_IRQHandler(void)
000000  4770              BX       lr
;;;258    {
;;;259    }
;;;260    
                          ENDP


                          AREA ||i.EXTI9_5_IRQHandler||, CODE, READONLY, ALIGN=2

                  EXTI9_5_IRQHandler PROC
;;;401    *******************************************************************************/
;;;402    void EXTI9_5_IRQHandler(void)
000000  b510              PUSH     {r4,lr}
;;;403    {
;;;404      if(EXTI_GetITStatus(EXTI_Line9) != RESET)
000002  f44f7000          MOV      r0,#0x200
000006  f7fffffe          BL       EXTI_GetITStatus
00000a  2800              CMP      r0,#0
00000c  d006              BEQ      |L19.28|
;;;405      {   
;;;406        /* Turn off led connected to PC.07 */
;;;407    	GPIO_WriteBit(GPIOC, GPIO_Pin_7, Bit_RESET);
00000e  2200              MOVS     r2,#0
000010  e8bd4010          POP      {r4,lr}
000014  2180              MOVS     r1,#0x80
000016  4802              LDR      r0,|L19.32|
000018  f7ffbffe          B.W      GPIO_WriteBit
                  |L19.28|
;;;408    
;;;409    	/* As EXTI line9 pending bit is not cleared, the CPU will execute indefinitely 
;;;410    	   this ISR and when the IWDG counter reaches 00h the IWDG reset occurs */
;;;411      }
;;;412    }
00001c  bd10              POP      {r4,pc}
;;;413    
                          ENDP

00001e  0000              DCW      0x0000
                  |L19.32|
                          DCD      0x40011000

                          AREA ||i.FLASH_IRQHandler||, CODE, READONLY, ALIGN=1

                  FLASH_IRQHandler PROC
;;;190    *******************************************************************************/
;;;191    void FLASH_IRQHandler(void)
000000  4770              BX       lr
;;;192    {
;;;193    }
;;;194    
                          ENDP


                          AREA ||i.HardFaultException||, CODE, READONLY, ALIGN=1

                  HardFaultException PROC
;;;53     *******************************************************************************/
;;;54     void HardFaultException(void)
000000  4770              BX       lr
;;;55     {
;;;56     }
;;;57     
                          ENDP


                          AREA ||i.I2C1_ER_IRQHandler||, CODE, READONLY, ALIGN=1

                  I2C1_ER_IRQHandler PROC
;;;510    *******************************************************************************/
;;;511    void I2C1_ER_IRQHandler(void)
000000  4770              BX       lr
;;;512    {
;;;513    }
;;;514    
                          ENDP


                          AREA ||i.I2C1_EV_IRQHandler||, CODE, READONLY, ALIGN=1

                  I2C1_EV_IRQHandler PROC
;;;499    *******************************************************************************/
;;;500    void I2C1_EV_IRQHandler(void)
000000  4770              BX       lr
;;;501    {
;;;502    }
;;;503    
                          ENDP


                          AREA ||i.I2C2_ER_IRQHandler||, CODE, READONLY, ALIGN=1

                  I2C2_ER_IRQHandler PROC
;;;532    *******************************************************************************/
;;;533    void I2C2_ER_IRQHandler(void)
000000  4770              BX       lr
;;;534    {
;;;535    }
;;;536    
                          ENDP


                          AREA ||i.I2C2_EV_IRQHandler||, CODE, READONLY, ALIGN=1

                  I2C2_EV_IRQHandler PROC
;;;521    *******************************************************************************/
;;;522    void I2C2_EV_IRQHandler(void)
000000  4770              BX       lr
;;;523    {
;;;524    }
;;;525    
                          ENDP


                          AREA ||i.MemManageException||, CODE, READONLY, ALIGN=1

                  MemManageException PROC
;;;64     *******************************************************************************/
;;;65     void MemManageException(void)
000000  4770              BX       lr
;;;66     {
;;;67     }
;;;68     
                          ENDP


                          AREA ||i.NMIException||, CODE, READONLY, ALIGN=1

                  NMIException PROC
;;;42     *******************************************************************************/
;;;43     void NMIException(void)
000000  4770              BX       lr
;;;44     {
;;;45     }
;;;46     
                          ENDP


                          AREA ||i.PVD_IRQHandler||, CODE, READONLY, ALIGN=1

                  PVD_IRQHandler PROC
;;;157    *******************************************************************************/
;;;158    void PVD_IRQHandler(void)
000000  4770              BX       lr
;;;159    {
;;;160    }
;;;161    
                          ENDP


                          AREA ||i.PendSVC||, CODE, READONLY, ALIGN=1

                  PendSVC PROC
;;;119    *******************************************************************************/
;;;120    void PendSVC(void)
000000  4770              BX       lr
;;;121    {
;;;122    }
;;;123    
                          ENDP


                          AREA ||i.RCC_IRQHandler||, CODE, READONLY, ALIGN=1

                  RCC_IRQHandler PROC
;;;201    *******************************************************************************/
;;;202    void RCC_IRQHandler(void)
000000  4770              BX       lr
;;;203    {
;;;204    }
;;;205    
                          ENDP


                          AREA ||i.RTCAlarm_IRQHandler||, CODE, READONLY, ALIGN=1

                  RTCAlarm_IRQHandler PROC
;;;609    *******************************************************************************/
;;;610    void RTCAlarm_IRQHandler(void)
000000  4770              BX       lr
;;;611    {
;;;612    }
;;;613    
                          ENDP


                          AREA ||i.RTC_IRQHandler||, CODE, READONLY, ALIGN=1

                  RTC_IRQHandler PROC
;;;179    *******************************************************************************/
;;;180    void RTC_IRQHandler(void)
000000  4770              BX       lr
;;;181    {
;;;182    }
;;;183    
                          ENDP


                          AREA ||i.SPI1_IRQHandler||, CODE, READONLY, ALIGN=1

                  SPI1_IRQHandler PROC
;;;543    *******************************************************************************/
;;;544    void SPI1_IRQHandler(void)
000000  4770              BX       lr
;;;545    {
;;;546    }
;;;547    
                          ENDP


                          AREA ||i.SPI2_IRQHandler||, CODE, READONLY, ALIGN=1

                  SPI2_IRQHandler PROC
;;;554    *******************************************************************************/
;;;555    void SPI2_IRQHandler(void)
000000  4770              BX       lr
;;;556    {
;;;557    }
;;;558    
                          ENDP


                          AREA ||i.SVCHandler||, CODE, READONLY, ALIGN=1

                  SVCHandler PROC
;;;108    *******************************************************************************/
;;;109    void SVCHandler(void)
000000  4770              BX       lr
;;;110    {
;;;111    }
;;;112    
                          ENDP


                          AREA ||i.SysTickHandler||, CODE, READONLY, ALIGN=2

                  SysTickHandler PROC
;;;130    *******************************************************************************/
;;;131    void SysTickHandler(void)
000000  b510              PUSH     {r4,lr}
;;;132    {
;;;133      /* Reload IWDG counter */
;;;134      IWDG_ReloadCounter();
000002  f7fffffe          BL       IWDG_ReloadCounter
;;;135      
;;;136      /* Toggle led connected to PC.07 */
;;;137      GPIO_WriteBit(GPIOC, GPIO_Pin_7, (BitAction)(1-GPIO_ReadOutputDataBit(GPIOC, GPIO_Pin_7)));
000006  4c07              LDR      r4,|L36.36|
000008  2180              MOVS     r1,#0x80
00000a  4620              MOV      r0,r4
00000c  f7fffffe          BL       GPIO_ReadOutputDataBit
000010  f1c00001          RSB      r0,r0,#1
000014  b2c2              UXTB     r2,r0
000016  4620              MOV      r0,r4
000018  e8bd4010          POP      {r4,lr}
00001c  2180              MOVS     r1,#0x80
00001e  f7ffbffe          B.W      GPIO_WriteBit
;;;138    }
;;;139    
                          ENDP

000022  0000              DCW      0x0000
                  |L36.36|
                          DCD      0x40011000

                          AREA ||i.TAMPER_IRQHandler||, CODE, READONLY, ALIGN=1

                  TAMPER_IRQHandler PROC
;;;168    *******************************************************************************/
;;;169    void TAMPER_IRQHandler(void)
000000  4770              BX       lr
;;;170    {
;;;171    }
;;;172    
                          ENDP


                          AREA ||i.TIM1_BRK_IRQHandler||, CODE, READONLY, ALIGN=1

                  TIM1_BRK_IRQHandler PROC
;;;420    *******************************************************************************/
;;;421    void TIM1_BRK_IRQHandler(void)
000000  4770              BX       lr
;;;422    {
;;;423    }
;;;424    
                          ENDP


                          AREA ||i.TIM1_CC_IRQHandler||, CODE, READONLY, ALIGN=1

                  TIM1_CC_IRQHandler PROC
;;;455    *******************************************************************************/
;;;456    void TIM1_CC_IRQHandler(void)
000000  4770              BX       lr
;;;457    {
;;;458    }
;;;459    
                          ENDP


                          AREA ||i.TIM1_TRG_COM_IRQHandler||, CODE, READONLY, ALIGN=1

                  TIM1_TRG_COM_IRQHandler PROC
;;;444    *******************************************************************************/
;;;445    void TIM1_TRG_COM_IRQHandler(void)
000000  4770              BX       lr
;;;446    {
;;;447    }
;;;448    
                          ENDP


                          AREA ||i.TIM1_UP_IRQHandler||, CODE, READONLY, ALIGN=1

                  TIM1_UP_IRQHandler PROC
;;;432    *******************************************************************************/
;;;433    void TIM1_UP_IRQHandler(void)
000000  4770              BX       lr
;;;434    {
;;;435    }
;;;436    
                          ENDP


                          AREA ||i.TIM2_IRQHandler||, CODE, READONLY, ALIGN=1

                  TIM2_IRQHandler PROC
;;;466    *******************************************************************************/
;;;467    void TIM2_IRQHandler(void)
000000  4770              BX       lr
;;;468    {
;;;469    }
;;;470    
                          ENDP


                          AREA ||i.TIM3_IRQHandler||, CODE, READONLY, ALIGN=1

                  TIM3_IRQHandler PROC
;;;477    *******************************************************************************/
;;;478    void TIM3_IRQHandler(void)
000000  4770              BX       lr
;;;479    {
;;;480    }
;;;481    
                          ENDP


                          AREA ||i.TIM4_IRQHandler||, CODE, READONLY, ALIGN=1

                  TIM4_IRQHandler PROC
;;;488    *******************************************************************************/
;;;489    void TIM4_IRQHandler(void)
000000  4770              BX       lr
;;;490    {
;;;491    }
;;;492    
                          ENDP


                          AREA ||i.USART1_IRQHandler||, CODE, READONLY, ALIGN=1

                  USART1_IRQHandler PROC
;;;565    *******************************************************************************/
;;;566    void USART1_IRQHandler(void)
000000  4770              BX       lr
;;;567    {
;;;568    }
;;;569    
                          ENDP


                          AREA ||i.USART2_IRQHandler||, CODE, READONLY, ALIGN=1

                  USART2_IRQHandler PROC
;;;576    *******************************************************************************/
;;;577    void USART2_IRQHandler(void)
000000  4770              BX       lr
;;;578    {
;;;579    }
;;;580    
                          ENDP


                          AREA ||i.USART3_IRQHandler||, CODE, READONLY, ALIGN=1

                  USART3_IRQHandler PROC
;;;587    *******************************************************************************/
;;;588    void USART3_IRQHandler(void)
000000  4770              BX       lr
;;;589    {
;;;590    }
;;;591    
                          ENDP


                          AREA ||i.USBWakeUp_IRQHandler||, CODE, READONLY, ALIGN=1

                  USBWakeUp_IRQHandler PROC
;;;620    *******************************************************************************/
;;;621    void USBWakeUp_IRQHandler(void)
000000  4770              BX       lr
;;;622    {
;;;623    }
;;;624    
                          ENDP


                          AREA ||i.USB_HP_CAN_TX_IRQHandler||, CODE, READONLY, ALIGN=1

                  USB_HP_CAN_TX_IRQHandler PROC
;;;356    *******************************************************************************/
;;;357    void USB_HP_CAN_TX_IRQHandler(void)
000000  4770              BX       lr
;;;358    {
;;;359    }
;;;360    
                          ENDP


                          AREA ||i.USB_LP_CAN_RX0_IRQHandler||, CODE, READONLY, ALIGN=1

                  USB_LP_CAN_RX0_IRQHandler PROC
;;;368    *******************************************************************************/
;;;369    void USB_LP_CAN_RX0_IRQHandler(void)
000000  4770              BX       lr
;;;370    {
;;;371    }
;;;372    
                          ENDP


                          AREA ||i.UsageFaultException||, CODE, READONLY, ALIGN=1

                  UsageFaultException PROC
;;;86     *******************************************************************************/
;;;87     void UsageFaultException(void)
000000  4770              BX       lr
;;;88     {
;;;89     }
;;;90     
                          ENDP


                          AREA ||i.WWDG_IRQHandler||, CODE, READONLY, ALIGN=1

                  WWDG_IRQHandler PROC
;;;146    *******************************************************************************/
;;;147    void WWDG_IRQHandler(void)
000000  4770              BX       lr
;;;148    {
;;;149    }
;;;150    
                          ENDP

